; Function Attrs: mustprogress nofree norecurse nosync nounwind willreturn memory(write, argmem: readwrite, inaccessiblemem: none) uwtable
define dso_local void @_ZN7cmCTest12SetTestModelEi(ptr nocapture noundef nonnull readonly align 8 dereferenceable(8) %0, i32 noundef %1) local_unnamed_addr #11 align 2 {
  %3 = load ptr, ptr %0, align 8
  %4 = getelementptr inbounds i8, ptr %3, i64 15120
  store i8 0, ptr %4, align 8
  %5 = load ptr, ptr %0, align 8
  %6 = getelementptr inbounds i8, ptr %5, i64 14940
  store i32 %1, ptr %6, align 4
  ret void
}